target datalayout = "e-m:e-p270:32:32-p271:32:32-p272:64:64-i64:64-i128:128-f80:128-n8:16:32:64-S128"
target triple = "x86_64-pc-linux-gnu"

%struct.Gia_Man_t_ = type { ptr, ptr, i32, i32, i32, i32, ptr, ptr, i32, i32, i32, ptr, ptr, %struct.Vec_Int_t_, %struct.Vec_Int_t_, i32, i32, i32, %struct.Vec_Int_t_, ptr, ptr, ptr, i32, i32, i32, i32, ptr, ptr, ptr, ptr, ptr, i32, i32, ptr, i32, ptr, ptr, ptr, ptr, ptr, ptr, ptr, ptr, ptr, ptr, ptr, ptr, ptr, ptr, ptr, ptr, ptr, ptr, %struct.Vec_Int_t_, %struct.Vec_Int_t_, ptr, ptr, ptr, ptr, ptr, ptr, ptr, ptr, ptr, ptr, ptr, ptr, ptr, ptr, ptr, ptr, ptr, ptr, ptr, ptr, ptr, i32, float, float, ptr, ptr, i32, ptr, ptr, ptr, ptr, ptr, ptr, ptr, ptr, ptr, ptr, ptr, ptr, ptr, ptr, ptr, i64, i64, ptr, ptr, i32, i32, i32, i32, i32, i32, i32, i32, i32, i32, i32, i32, ptr, ptr, ptr, ptr, ptr, ptr, ptr, ptr, i32, i32, i32, ptr, i32, i32, ptr, ptr, ptr, ptr, ptr, ptr, i32, i32, ptr, %struct.Vec_Int_t_, %struct.Vec_Int_t_, %struct.Vec_Int_t_, ptr, ptr, ptr, i32, i32, i32, i32, ptr, ptr, ptr, ptr, ptr }
%struct.Vec_Int_t_ = type { i32, i32, ptr }

@.str.4 = private unnamed_addr constant [28 x i8] c"Domain %2d : %5d -> %5d :  \00", align 1
@.str.5 = private unnamed_addr constant [59 x i8] c"EqConst =%4d.  EqFlop =%4d.  Dangling =%4d.  Unused =%4d.\0A\00", align 1

; Function Attrs: inlinehint nounwind uwtable
define internal i32 @Abc_MaxInt(i32 noundef %0, i32 noundef %1) #2 {
  %3 = alloca i32, align 4
  %4 = alloca i32, align 4
  store i32 %0, ptr %3, align 4, !tbaa !33
  store i32 %1, ptr %4, align 4, !tbaa !33
  %5 = load i32, ptr %3, align 4, !tbaa !33
  %6 = load i32, ptr %4, align 4, !tbaa !33
  %7 = icmp sgt i32 %5, %6
  br i1 %7, label %8, label %10

8:                                                ; preds = %2
  %9 = load i32, ptr %3, align 4, !tbaa !33
  br label %12

10:                                               ; preds = %2
  %11 = load i32, ptr %4, align 4, !tbaa !33
  br label %12

12:                                               ; preds = %10, %8
  %13 = phi i32 [ %9, %8 ], [ %11, %10 ]
  ret i32 %13
}

; Function Attrs: inlinehint nounwind uwtable
define internal i32 @Vec_IntCountEntry(ptr noundef %0, i32 noundef %1) #2 {
  %3 = alloca ptr, align 8
  %4 = alloca i32, align 4
  %5 = alloca i32, align 4
  %6 = alloca i32, align 4
  store ptr %0, ptr %3, align 8, !tbaa !10
  store i32 %1, ptr %4, align 4, !tbaa !33
  call void @llvm.lifetime.start.p0(i64 4, ptr %5) #11
  call void @llvm.lifetime.start.p0(i64 4, ptr %6) #11
  store i32 0, ptr %6, align 4, !tbaa !33
  store i32 0, ptr %5, align 4, !tbaa !33
  br label %7

7:                                                ; preds = %26, %2
  %8 = load i32, ptr %5, align 4, !tbaa !33
  %9 = load ptr, ptr %3, align 8, !tbaa !10
  %10 = getelementptr inbounds nuw %struct.Vec_Int_t_, ptr %9, i32 0, i32 1
  %11 = load i32, ptr %10, align 4, !tbaa !42
  %12 = icmp slt i32 %8, %11
  br i1 %12, label %13, label %29

13:                                               ; preds = %7
  %14 = load ptr, ptr %3, align 8, !tbaa !10
  %15 = getelementptr inbounds nuw %struct.Vec_Int_t_, ptr %14, i32 0, i32 2
  %16 = load ptr, ptr %15, align 8, !tbaa !44
  %17 = load i32, ptr %5, align 4, !tbaa !33
  %18 = sext i32 %17 to i64
  %19 = getelementptr inbounds i32, ptr %16, i64 %18
  %20 = load i32, ptr %19, align 4, !tbaa !33
  %21 = load i32, ptr %4, align 4, !tbaa !33
  %22 = icmp eq i32 %20, %21
  %23 = zext i1 %22 to i32
  %24 = load i32, ptr %6, align 4, !tbaa !33
  %25 = add nsw i32 %24, %23
  store i32 %25, ptr %6, align 4, !tbaa !33
  br label %26

26:                                               ; preds = %13
  %27 = load i32, ptr %5, align 4, !tbaa !33
  %28 = add nsw i32 %27, 1
  store i32 %28, ptr %5, align 4, !tbaa !33
  br label %7, !llvm.loop !98

29:                                               ; preds = %7
  %30 = load i32, ptr %6, align 4, !tbaa !33
  call void @llvm.lifetime.end.p0(i64 4, ptr %6) #11
  call void @llvm.lifetime.end.p0(i64 4, ptr %5) #11
  ret i32 %30
}

; Function Attrs: inlinehint nounwind uwtable
define internal i32 @Vec_IntFindMax(ptr noundef %0) #2 {
  %2 = alloca i32, align 4
  %3 = alloca ptr, align 8
  %4 = alloca i32, align 4
  %5 = alloca i32, align 4
  %6 = alloca i32, align 4
  store ptr %0, ptr %3, align 8, !tbaa !10
  call void @llvm.lifetime.start.p0(i64 4, ptr %4) #11
  call void @llvm.lifetime.start.p0(i64 4, ptr %5) #11
  %7 = load ptr, ptr %3, align 8, !tbaa !10
  %8 = getelementptr inbounds nuw %struct.Vec_Int_t_, ptr %7, i32 0, i32 1
  %9 = load i32, ptr %8, align 4, !tbaa !42
  %10 = icmp eq i32 %9, 0
  br i1 %10, label %11, label %12

11:                                               ; preds = %1
  store i32 0, ptr %2, align 4
  store i32 1, ptr %6, align 4
  br label %48

12:                                               ; preds = %1
  %13 = load ptr, ptr %3, align 8, !tbaa !10
  %14 = getelementptr inbounds nuw %struct.Vec_Int_t_, ptr %13, i32 0, i32 2
  %15 = load ptr, ptr %14, align 8, !tbaa !44
  %16 = getelementptr inbounds i32, ptr %15, i64 0
  %17 = load i32, ptr %16, align 4, !tbaa !33
  store i32 %17, ptr %5, align 4, !tbaa !33
  store i32 1, ptr %4, align 4, !tbaa !33
  br label %18

18:                                               ; preds = %43, %12
  %19 = load i32, ptr %4, align 4, !tbaa !33
  %20 = load ptr, ptr %3, align 8, !tbaa !10
  %21 = getelementptr inbounds nuw %struct.Vec_Int_t_, ptr %20, i32 0, i32 1
  %22 = load i32, ptr %21, align 4, !tbaa !42
  %23 = icmp slt i32 %19, %22
  br i1 %23, label %24, label %46

24:                                               ; preds = %18
  %25 = load i32, ptr %5, align 4, !tbaa !33
  %26 = load ptr, ptr %3, align 8, !tbaa !10
  %27 = getelementptr inbounds nuw %struct.Vec_Int_t_, ptr %26, i32 0, i32 2
  %28 = load ptr, ptr %27, align 8, !tbaa !44
  %29 = load i32, ptr %4, align 4, !tbaa !33
  %30 = sext i32 %29 to i64
  %31 = getelementptr inbounds i32, ptr %28, i64 %30
  %32 = load i32, ptr %31, align 4, !tbaa !33
  %33 = icmp slt i32 %25, %32
  br i1 %33, label %34, label %42

34:                                               ; preds = %24
  %35 = load ptr, ptr %3, align 8, !tbaa !10
  %36 = getelementptr inbounds nuw %struct.Vec_Int_t_, ptr %35, i32 0, i32 2
  %37 = load ptr, ptr %36, align 8, !tbaa !44
  %38 = load i32, ptr %4, align 4, !tbaa !33
  %39 = sext i32 %38 to i64
  %40 = getelementptr inbounds i32, ptr %37, i64 %39
  %41 = load i32, ptr %40, align 4, !tbaa !33
  store i32 %41, ptr %5, align 4, !tbaa !33
  br label %42

42:                                               ; preds = %34, %24
  br label %43

43:                                               ; preds = %42
  %44 = load i32, ptr %4, align 4, !tbaa !33
  %45 = add nsw i32 %44, 1
  store i32 %45, ptr %4, align 4, !tbaa !33
  br label %18, !llvm.loop !96

46:                                               ; preds = %18
  %47 = load i32, ptr %5, align 4, !tbaa !33
  store i32 %47, ptr %2, align 4
  store i32 1, ptr %6, align 4
  br label %48

48:                                               ; preds = %46, %11
  call void @llvm.lifetime.end.p0(i64 4, ptr %5) #11
  call void @llvm.lifetime.end.p0(i64 4, ptr %4) #11
  %49 = load i32, ptr %2, align 4
  ret i32 %49
}

; Function Attrs: nounwind uwtable
define ptr @Gia_ManSweepWithBoxesAndDomains(ptr noundef %0, ptr noundef %1, i32 noundef %2, i32 noundef %3, i32 noundef %4, i32 noundef %5) #0 {
  %7 = alloca ptr, align 8
  %8 = alloca ptr, align 8
  %9 = alloca ptr, align 8
  %10 = alloca i32, align 4
  %11 = alloca i32, align 4
  %12 = alloca i32, align 4
  %13 = alloca i32, align 4
  %14 = alloca ptr, align 8
  %15 = alloca ptr, align 8
  %16 = alloca ptr, align 8
  %17 = alloca i32, align 4
  %18 = alloca ptr, align 8
  %19 = alloca i32, align 4
  %20 = alloca [3 x i32], align 4
  %21 = alloca i32, align 4
  %22 = alloca i32, align 4
  %23 = alloca i32, align 4
  store ptr %0, ptr %8, align 8, !tbaa !3
  store ptr %1, ptr %9, align 8, !tbaa !90
  store i32 %2, ptr %10, align 4, !tbaa !33
  store i32 %3, ptr %11, align 4, !tbaa !33
  store i32 %4, ptr %12, align 4, !tbaa !33
  store i32 %5, ptr %13, align 4, !tbaa !33
  call void @llvm.lifetime.start.p0(i64 8, ptr %14) #11
  call void @llvm.lifetime.start.p0(i64 8, ptr %15) #11
  call void @llvm.lifetime.start.p0(i64 8, ptr %16) #11
  call void @llvm.lifetime.start.p0(i64 4, ptr %17) #11
  %24 = load ptr, ptr %8, align 8, !tbaa !3
  %25 = getelementptr inbounds nuw %struct.Gia_Man_t_, ptr %24, i32 0, i32 61
  %26 = load ptr, ptr %25, align 8, !tbaa !56
  %27 = call i32 @Vec_IntFindMax(ptr noundef %26)
  store i32 %27, ptr %17, align 4, !tbaa !33
  call void @llvm.lifetime.start.p0(i64 8, ptr %18) #11
  call void @llvm.lifetime.start.p0(i64 4, ptr %19) #11
  call void @llvm.lifetime.start.p0(i64 12, ptr %20) #11
  call void @llvm.memset.p0.i64(ptr align 4 %20, i8 0, i64 12, i1 false)
  %28 = load ptr, ptr %8, align 8, !tbaa !3
  %29 = call ptr @Gia_ManDupUnnormalize(ptr noundef %28)
  store ptr %29, ptr %15, align 8, !tbaa !3
  %30 = load ptr, ptr %15, align 8, !tbaa !3
  %31 = icmp eq ptr %30, null
  br i1 %31, label %32, label %33

32:                                               ; preds = %6
  store ptr null, ptr %7, align 8
  store i32 1, ptr %21, align 4
  br label %135

33:                                               ; preds = %6
  %34 = load ptr, ptr %15, align 8, !tbaa !3
  %35 = load ptr, ptr %8, align 8, !tbaa !3
  call void @Gia_ManTransferTiming(ptr noundef %34, ptr noundef %35)
  store i32 1, ptr %19, align 4, !tbaa !33
  br label %36

36:                                               ; preds = %125, %33
  %37 = load i32, ptr %19, align 4, !tbaa !33
  %38 = load i32, ptr %17, align 4, !tbaa !33
  %39 = icmp sle i32 %37, %38
  br i1 %39, label %40, label %128

40:                                               ; preds = %36
  call void @llvm.lifetime.start.p0(i64 4, ptr %22) #11
  call void @llvm.lifetime.start.p0(i64 4, ptr %23) #11
  %41 = load ptr, ptr %15, align 8, !tbaa !3
  %42 = getelementptr inbounds nuw %struct.Gia_Man_t_, ptr %41, i32 0, i32 61
  %43 = load ptr, ptr %42, align 8, !tbaa !56
  %44 = load i32, ptr %19, align 4, !tbaa !33
  %45 = call i32 @Vec_IntCountEntry(ptr noundef %43, i32 noundef %44)
  store i32 %45, ptr %23, align 4, !tbaa !33
  %46 = load i32, ptr %23, align 4, !tbaa !33
  %47 = icmp slt i32 %46, 2
  br i1 %47, label %48, label %49

48:                                               ; preds = %40
  store i32 4, ptr %21, align 4
  br label %122

49:                                               ; preds = %40
  %50 = load ptr, ptr %15, align 8, !tbaa !3
  %51 = load ptr, ptr %15, align 8, !tbaa !3
  %52 = getelementptr inbounds nuw %struct.Gia_Man_t_, ptr %51, i32 0, i32 68
  %53 = load ptr, ptr %52, align 8, !tbaa !62
  %54 = call ptr @Gia_ManDupCollapse(ptr noundef %50, ptr noundef %53, ptr noundef null, i32 noundef 1)
  store ptr %54, ptr %14, align 8, !tbaa !3
  %55 = load ptr, ptr %14, align 8, !tbaa !3
  %56 = load ptr, ptr %15, align 8, !tbaa !3
  %57 = getelementptr inbounds nuw %struct.Gia_Man_t_, ptr %56, i32 0, i32 61
  %58 = load ptr, ptr %57, align 8, !tbaa !56
  %59 = load i32, ptr %19, align 4, !tbaa !33
  %60 = load ptr, ptr %9, align 8, !tbaa !90
  %61 = load i32, ptr %10, align 4, !tbaa !33
  %62 = load i32, ptr %11, align 4, !tbaa !33
  %63 = load i32, ptr %12, align 4, !tbaa !33
  call void @Gia_ManSweepComputeOneDomainEquivs(ptr noundef %55, ptr noundef %58, i32 noundef %59, ptr noundef %60, i32 noundef %61, i32 noundef %62, i32 noundef %63)
  %64 = load ptr, ptr %15, align 8, !tbaa !3
  %65 = load ptr, ptr %14, align 8, !tbaa !3
  %66 = load i32, ptr %12, align 4, !tbaa !33
  %67 = getelementptr inbounds [3 x i32], ptr %20, i64 0, i64 0
  %68 = call ptr @Gia_ManFraigSelectReprs(ptr noundef %64, ptr noundef %65, i32 noundef %66, ptr noundef %67)
  store ptr %68, ptr %18, align 8, !tbaa !77
  %69 = load ptr, ptr %14, align 8, !tbaa !3
  call void @Gia_ManStop(ptr noundef %69)
  %70 = load ptr, ptr %8, align 8, !tbaa !3
  %71 = load ptr, ptr %15, align 8, !tbaa !3
  call void @Gia_ManTransferTiming(ptr noundef %70, ptr noundef %71)
  %72 = load ptr, ptr %15, align 8, !tbaa !3
  store ptr %72, ptr %16, align 8, !tbaa !3
  %73 = load ptr, ptr %18, align 8, !tbaa !77
  %74 = call ptr @Gia_ManFraigReduceGia(ptr noundef %72, ptr noundef %73)
  store ptr %74, ptr %15, align 8, !tbaa !3
  %75 = load ptr, ptr %15, align 8, !tbaa !3
  %76 = load ptr, ptr %8, align 8, !tbaa !3
  call void @Gia_ManTransferTiming(ptr noundef %75, ptr noundef %76)
  %77 = load ptr, ptr %16, align 8, !tbaa !3
  call void @Gia_ManStop(ptr noundef %77)
  %78 = load ptr, ptr %18, align 8, !tbaa !77
  %79 = icmp ne ptr %78, null
  br i1 %79, label %80, label %82

80:                                               ; preds = %49
  %81 = load ptr, ptr %18, align 8, !tbaa !77
  call void @free(ptr noundef %81) #11
  store ptr null, ptr %18, align 8, !tbaa !77
  br label %83

82:                                               ; preds = %49
  br label %83

83:                                               ; preds = %82, %80
  %84 = load ptr, ptr %15, align 8, !tbaa !3
  store ptr %84, ptr %16, align 8, !tbaa !3
  %85 = call ptr @Gia_ManDupWithBoxes(ptr noundef %84, i32 noundef 1)
  store ptr %85, ptr %15, align 8, !tbaa !3
  %86 = load ptr, ptr %16, align 8, !tbaa !3
  call void @Gia_ManStop(ptr noundef %86)
  %87 = load ptr, ptr %15, align 8, !tbaa !3
  %88 = getelementptr inbounds nuw %struct.Gia_Man_t_, ptr %87, i32 0, i32 61
  %89 = load ptr, ptr %88, align 8, !tbaa !56
  %90 = load i32, ptr %19, align 4, !tbaa !33
  %91 = call i32 @Vec_IntCountEntry(ptr noundef %89, i32 noundef %90)
  store i32 %91, ptr %22, align 4, !tbaa !33
  %92 = load i32, ptr %23, align 4, !tbaa !33
  %93 = load i32, ptr %22, align 4, !tbaa !33
  %94 = sub nsw i32 %92, %93
  %95 = getelementptr inbounds [3 x i32], ptr %20, i64 0, i64 0
  %96 = load i32, ptr %95, align 4, !tbaa !33
  %97 = getelementptr inbounds [3 x i32], ptr %20, i64 0, i64 1
  %98 = load i32, ptr %97, align 4, !tbaa !33
  %99 = add nsw i32 %96, %98
  %100 = sub nsw i32 %94, %99
  %101 = getelementptr inbounds [3 x i32], ptr %20, i64 0, i64 2
  store i32 %100, ptr %101, align 4, !tbaa !33
  %102 = load i32, ptr %13, align 4, !tbaa !33
  %103 = icmp ne i32 %102, 0
  br i1 %103, label %104, label %121

104:                                              ; preds = %83
  %105 = load i32, ptr %19, align 4, !tbaa !33
  %106 = load i32, ptr %23, align 4, !tbaa !33
  %107 = load i32, ptr %22, align 4, !tbaa !33
  %108 = call i32 (ptr, ...) @printf(ptr noundef @.str.4, i32 noundef %105, i32 noundef %106, i32 noundef %107)
  %109 = getelementptr inbounds [3 x i32], ptr %20, i64 0, i64 0
  %110 = load i32, ptr %109, align 4, !tbaa !33
  %111 = getelementptr inbounds [3 x i32], ptr %20, i64 0, i64 1
  %112 = load i32, ptr %111, align 4, !tbaa !33
  %113 = getelementptr inbounds [3 x i32], ptr %20, i64 0, i64 2
  %114 = load i32, ptr %113, align 4, !tbaa !33
  %115 = call i32 @Abc_MaxInt(i32 noundef 0, i32 noundef %114)
  %116 = getelementptr inbounds [3 x i32], ptr %20, i64 0, i64 2
  %117 = load i32, ptr %116, align 4, !tbaa !33
  %118 = sub nsw i32 0, %117
  %119 = call i32 @Abc_MaxInt(i32 noundef 0, i32 noundef %118)
  %120 = call i32 (ptr, ...) @printf(ptr noundef @.str.5, i32 noundef %110, i32 noundef %112, i32 noundef %115, i32 noundef %119)
  br label %121

121:                                              ; preds = %104, %83
  store i32 0, ptr %21, align 4
  br label %122

122:                                              ; preds = %121, %48
  call void @llvm.lifetime.end.p0(i64 4, ptr %23) #11
  call void @llvm.lifetime.end.p0(i64 4, ptr %22) #11
  %123 = load i32, ptr %21, align 4
  switch i32 %123, label %137 [
    i32 0, label %124
    i32 4, label %125
  ]

124:                                              ; preds = %122
  br label %125

125:                                              ; preds = %124, %122
  %126 = load i32, ptr %19, align 4, !tbaa !33
  %127 = add nsw i32 %126, 1
  store i32 %127, ptr %19, align 4, !tbaa !33
  br label %36, !llvm.loop !97

128:                                              ; preds = %36
  %129 = load ptr, ptr %15, align 8, !tbaa !3
  store ptr %129, ptr %16, align 8, !tbaa !3
  %130 = call ptr @Gia_ManDupNormalize(ptr noundef %129, i32 noundef 0)
  store ptr %130, ptr %15, align 8, !tbaa !3
  %131 = load ptr, ptr %15, align 8, !tbaa !3
  %132 = load ptr, ptr %16, align 8, !tbaa !3
  call void @Gia_ManTransferTiming(ptr noundef %131, ptr noundef %132)
  %133 = load ptr, ptr %16, align 8, !tbaa !3
  call void @Gia_ManStop(ptr noundef %133)
  %134 = load ptr, ptr %15, align 8, !tbaa !3
  store ptr %134, ptr %7, align 8
  store i32 1, ptr %21, align 4
  br label %135

135:                                              ; preds = %128, %32
  call void @llvm.lifetime.end.p0(i64 12, ptr %20) #11
  call void @llvm.lifetime.end.p0(i64 4, ptr %19) #11
  call void @llvm.lifetime.end.p0(i64 8, ptr %18) #11
  call void @llvm.lifetime.end.p0(i64 4, ptr %17) #11
  call void @llvm.lifetime.end.p0(i64 8, ptr %16) #11
  call void @llvm.lifetime.end.p0(i64 8, ptr %15) #11
  call void @llvm.lifetime.end.p0(i64 8, ptr %14) #11
  %136 = load ptr, ptr %7, align 8
  ret ptr %136

137:                                              ; preds = %122
  unreachable
}