; Function Attrs: nounwind uwtable
define noundef ptr @Gia_ManSweepWithBoxesAndDomains(ptr noundef %0, ptr noundef %1, i32 noundef %2, i32 noundef %3, i32 noundef %4, i32 noundef %5) local_unnamed_addr #0 {
  %7 = alloca [3 x i32], align 4
  %8 = getelementptr inbounds nuw i8, ptr %0, i64 472
  %9 = load ptr, ptr %8, align 8, !tbaa !51
  %10 = getelementptr inbounds nuw i8, ptr %9, i64 4
  %11 = load i32, ptr %10, align 4, !tbaa !34
  %12 = icmp eq i32 %11, 0
  br i1 %12, label %Vec_IntFindMax.exit, label %13

13:                                               ; preds = %6
  %14 = getelementptr inbounds nuw i8, ptr %9, i64 8
  %15 = load ptr, ptr %14, align 8, !tbaa !35
  %16 = load i32, ptr %15, align 4, !tbaa !29
  %17 = icmp sgt i32 %11, 1
  br i1 %17, label %.lr.ph.preheader.i, label %Vec_IntFindMax.exit

.lr.ph.preheader.i:                               ; preds = %13
  %wide.trip.count.i = zext nneg i32 %11 to i64
  br label %.lr.ph.i

.lr.ph.i:                                         ; preds = %.lr.ph.i, %.lr.ph.preheader.i
  %indvars.iv.i = phi i64 [ 1, %.lr.ph.preheader.i ], [ %indvars.iv.next.i, %.lr.ph.i ]
  %.015.i = phi i32 [ %16, %.lr.ph.preheader.i ], [ %spec.select.i, %.lr.ph.i ]
  %18 = getelementptr inbounds nuw i32, ptr %15, i64 %indvars.iv.i
  %19 = load i32, ptr %18, align 4, !tbaa !29
  %spec.select.i = tail call i32 @llvm.smax.i32(i32 %.015.i, i32 %19)
  %indvars.iv.next.i = add nuw nsw i64 %indvars.iv.i, 1
  %exitcond.not.i = icmp eq i64 %indvars.iv.next.i, %wide.trip.count.i
  br i1 %exitcond.not.i, label %Vec_IntFindMax.exit, label %.lr.ph.i, !llvm.loop !86

Vec_IntFindMax.exit:                              ; preds = %.lr.ph.i, %6, %13
  %.012.i = phi i32 [ 0, %6 ], [ %16, %13 ], [ %spec.select.i, %.lr.ph.i ]
  call void @llvm.lifetime.start.p0(i64 12, ptr nonnull %7) #19
  call void @llvm.memset.p0.i64(ptr noundef nonnull align 4 dereferenceable(12) %7, i8 0, i64 12, i1 false)
  %20 = tail call ptr @Gia_ManDupUnnormalize(ptr noundef %0) #19
  %21 = icmp eq ptr %20, null
  br i1 %21, label %76, label %22

22:                                               ; preds = %Vec_IntFindMax.exit
  tail call void @Gia_ManTransferTiming(ptr noundef nonnull %20, ptr noundef %0) #19
  %.not73 = icmp slt i32 %.012.i, 1
  br i1 %.not73, label %._crit_edge, label %.lr.ph

.lr.ph:                                           ; preds = %22
  %23 = getelementptr inbounds nuw i8, ptr %7, i64 4
  %24 = getelementptr inbounds nuw i8, ptr %7, i64 8
  %.not54 = icmp eq i32 %5, 0
  br label %25

25:                                               ; preds = %.lr.ph, %Vec_IntCountEntry.exit.thread
  %.04876 = phi ptr [ %20, %.lr.ph ], [ %.1, %Vec_IntCountEntry.exit.thread ]
  %.04974 = phi i32 [ 1, %.lr.ph ], [ %74, %Vec_IntCountEntry.exit.thread ]
  %26 = getelementptr inbounds nuw i8, ptr %.04876, i64 472
  %27 = load ptr, ptr %26, align 8, !tbaa !51
  %28 = getelementptr inbounds nuw i8, ptr %27, i64 4
  %29 = load i32, ptr %28, align 4, !tbaa !34
  %30 = icmp sgt i32 %29, 0
  br i1 %30, label %.lr.ph.i55, label %Vec_IntCountEntry.exit.thread

.lr.ph.i55:                                       ; preds = %25
  %31 = getelementptr inbounds nuw i8, ptr %27, i64 8
  %32 = load ptr, ptr %31, align 8, !tbaa !35
  %wide.trip.count.i56 = zext nneg i32 %29 to i64
  br label %33

33:                                               ; preds = %33, %.lr.ph.i55
  %indvars.iv.i57 = phi i64 [ 0, %.lr.ph.i55 ], [ %indvars.iv.next.i58, %33 ]
  %.09.i = phi i32 [ 0, %.lr.ph.i55 ], [ %38, %33 ]
  %34 = getelementptr inbounds nuw i32, ptr %32, i64 %indvars.iv.i57
  %35 = load i32, ptr %34, align 4, !tbaa !29
  %36 = icmp eq i32 %35, %.04974
  %37 = zext i1 %36 to i32
  %38 = add nuw nsw i32 %.09.i, %37
  %indvars.iv.next.i58 = add nuw nsw i64 %indvars.iv.i57, 1
  %exitcond.not.i59 = icmp eq i64 %indvars.iv.next.i58, %wide.trip.count.i56
  br i1 %exitcond.not.i59, label %Vec_IntCountEntry.exit, label %33, !llvm.loop !87

Vec_IntCountEntry.exit:                           ; preds = %33
  %39 = icmp samesign ult i32 %38, 2
  br i1 %39, label %Vec_IntCountEntry.exit.thread, label %40

40:                                               ; preds = %Vec_IntCountEntry.exit
  %41 = getelementptr inbounds nuw i8, ptr %.04876, i64 528
  %42 = load ptr, ptr %41, align 8, !tbaa !57
  %43 = tail call ptr @Gia_ManDupCollapse(ptr noundef %.04876, ptr noundef %42, ptr noundef null, i32 noundef 1) #19
  %44 = load ptr, ptr %26, align 8, !tbaa !51
  tail call void @Gia_ManSweepComputeOneDomainEquivs(ptr noundef %43, ptr noundef %44, i32 noundef %.04974, ptr noundef %1, i32 noundef %2, i32 noundef %3, i32 noundef %4)
  %45 = call ptr @Gia_ManFraigSelectReprs(ptr noundef %.04876, ptr noundef %43, i32 noundef %4, ptr noundef nonnull %7)
  tail call void @Gia_ManStop(ptr noundef %43) #19
  tail call void @Gia_ManTransferTiming(ptr noundef %0, ptr noundef %.04876) #19
  %46 = tail call ptr @Gia_ManFraigReduceGia(ptr noundef %.04876, ptr noundef %45)
  tail call void @Gia_ManTransferTiming(ptr noundef %46, ptr noundef %0) #19
  tail call void @Gia_ManStop(ptr noundef %.04876) #19
  %.not53 = icmp eq ptr %45, null
  br i1 %.not53, label %48, label %47

47:                                               ; preds = %40
  tail call void @free(ptr noundef nonnull %45) #19
  br label %48

48:                                               ; preds = %40, %47
  %49 = tail call ptr @Gia_ManDupWithBoxes(ptr noundef %46, i32 noundef 1)
  tail call void @Gia_ManStop(ptr noundef %46) #19
  %50 = getelementptr inbounds nuw i8, ptr %49, i64 472
  %51 = load ptr, ptr %50, align 8, !tbaa !51
  %52 = getelementptr inbounds nuw i8, ptr %51, i64 4
  %53 = load i32, ptr %52, align 4, !tbaa !34
  %54 = icmp sgt i32 %53, 0
  br i1 %54, label %.lr.ph.i61, label %Vec_IntCountEntry.exit67

.lr.ph.i61:                                       ; preds = %48
  %55 = getelementptr inbounds nuw i8, ptr %51, i64 8
  %56 = load ptr, ptr %55, align 8, !tbaa !35
  %wide.trip.count.i62 = zext nneg i32 %53 to i64
  br label %57

57:                                               ; preds = %57, %.lr.ph.i61
  %indvars.iv.i63 = phi i64 [ 0, %.lr.ph.i61 ], [ %indvars.iv.next.i65, %57 ]
  %.09.i64 = phi i32 [ 0, %.lr.ph.i61 ], [ %62, %57 ]
  %58 = getelementptr inbounds nuw i32, ptr %56, i64 %indvars.iv.i63
  %59 = load i32, ptr %58, align 4, !tbaa !29
  %60 = icmp eq i32 %59, %.04974
  %61 = zext i1 %60 to i32
  %62 = add nuw nsw i32 %.09.i64, %61
  %indvars.iv.next.i65 = add nuw nsw i64 %indvars.iv.i63, 1
  %exitcond.not.i66 = icmp eq i64 %indvars.iv.next.i65, %wide.trip.count.i62
  br i1 %exitcond.not.i66, label %Vec_IntCountEntry.exit67, label %57, !llvm.loop !87

Vec_IntCountEntry.exit67:                         ; preds = %57, %48
  %.0.lcssa.i60 = phi i32 [ 0, %48 ], [ %62, %57 ]
  %63 = load i32, ptr %7, align 4, !tbaa !29
  %64 = load i32, ptr %23, align 4, !tbaa !29
  %65 = add i32 %.0.lcssa.i60, %63
  %66 = add i32 %65, %64
  %67 = sub i32 %38, %66
  store i32 %67, ptr %24, align 4, !tbaa !29
  br i1 %.not54, label %Vec_IntCountEntry.exit.thread, label %68

68:                                               ; preds = %Vec_IntCountEntry.exit67
  %69 = tail call i32 (ptr, ...) @printf(ptr noundef nonnull dereferenceable(1) @.str.4, i32 noundef %.04974, i32 noundef %38, i32 noundef %.0.lcssa.i60)
  %70 = tail call noundef range(i32 0, -2147483648) i32 @llvm.smax.i32(i32 %67, i32 0)
  %71 = sub nsw i32 0, %67
  %72 = tail call noundef range(i32 0, -2147483648) i32 @llvm.smax.i32(i32 %71, i32 0)
  %73 = tail call i32 (ptr, ...) @printf(ptr noundef nonnull dereferenceable(1) @.str.5, i32 noundef %63, i32 noundef %64, i32 noundef %70, i32 noundef %72)
  br label %Vec_IntCountEntry.exit.thread

Vec_IntCountEntry.exit.thread:                    ; preds = %25, %Vec_IntCountEntry.exit67, %68, %Vec_IntCountEntry.exit
  %.1 = phi ptr [ %.04876, %Vec_IntCountEntry.exit ], [ %49, %68 ], [ %49, %Vec_IntCountEntry.exit67 ], [ %.04876, %25 ]
  %74 = add nuw i32 %.04974, 1
  %exitcond.not = icmp eq i32 %.04974, %.012.i
  br i1 %exitcond.not, label %._crit_edge, label %25, !llvm.loop !88

._crit_edge:                                      ; preds = %Vec_IntCountEntry.exit.thread, %22
  %.048.lcssa = phi ptr [ %20, %22 ], [ %.1, %Vec_IntCountEntry.exit.thread ]
  %75 = tail call ptr @Gia_ManDupNormalize(ptr noundef %.048.lcssa, i32 noundef 0) #19
  tail call void @Gia_ManTransferTiming(ptr noundef %75, ptr noundef %.048.lcssa) #19
  tail call void @Gia_ManStop(ptr noundef %.048.lcssa) #19
  br label %76

76:                                               ; preds = %Vec_IntFindMax.exit, %._crit_edge
  %.0 = phi ptr [ %75, %._crit_edge ], [ null, %Vec_IntFindMax.exit ]
  call void @llvm.lifetime.end.p0(i64 12, ptr nonnull %7) #19
  ret ptr %.0
}